target datalayout = "e-m:e-p270:32:32-p271:32:32-p272:64:64-i64:64-i128:128-f80:128-n8:16:32:64-S128"
target triple = "x86_64-pc-linux-gnu"

@allow_customize = internal global i32 1, align 4
@malloc_impl = internal global ptr @CRYPTO_malloc, align 8
@realloc_impl = internal global ptr @CRYPTO_realloc, align 8
@free_impl = internal global ptr @CRYPTO_free, align 8

; Function Attrs: nounwind uwtable
define void @CRYPTO_free(ptr noundef %0, ptr noundef %1, i32 noundef %2) #0 {
  %4 = alloca ptr, align 8
  %5 = alloca ptr, align 8
  %6 = alloca i32, align 4
  store ptr %0, ptr %4, align 8, !tbaa !3
  store ptr %1, ptr %5, align 8, !tbaa !11
  store i32 %2, ptr %6, align 4, !tbaa !7
  %7 = load ptr, ptr @free_impl, align 8, !tbaa !3
  %8 = icmp ne ptr %7, @CRYPTO_free
  br i1 %8, label %9, label %14

9:                                                ; preds = %3
  %10 = load ptr, ptr @free_impl, align 8, !tbaa !3
  %11 = load ptr, ptr %4, align 8, !tbaa !3
  %12 = load ptr, ptr %5, align 8, !tbaa !11
  %13 = load i32, ptr %6, align 4, !tbaa !7
  call void %10(ptr noundef %11, ptr noundef %12, i32 noundef %13)
  br label %16

14:                                               ; preds = %3
  %15 = load ptr, ptr %4, align 8, !tbaa !3
  call void @free(ptr noundef %15) #8
  br label %16

16:                                               ; preds = %14, %9
  ret void
}

; Function Attrs: nounwind uwtable
define noalias ptr @CRYPTO_malloc(i64 noundef %0, ptr noundef %1, i32 noundef %2) #0 {
  %4 = alloca ptr, align 8
  %5 = alloca i64, align 8
  %6 = alloca ptr, align 8
  %7 = alloca i32, align 4
  %8 = alloca ptr, align 8
  %9 = alloca i32, align 4
  store i64 %0, ptr %5, align 8, !tbaa !9
  store ptr %1, ptr %6, align 8, !tbaa !11
  store i32 %2, ptr %7, align 4, !tbaa !7
  call void @llvm.lifetime.start.p0(i64 8, ptr %8) #8
  %10 = load ptr, ptr @malloc_impl, align 8, !tbaa !3
  %11 = icmp ne ptr %10, @CRYPTO_malloc
  br i1 %11, label %12, label %26

12:                                               ; preds = %3
  %13 = load ptr, ptr @malloc_impl, align 8, !tbaa !3
  %14 = load i64, ptr %5, align 8, !tbaa !9
  %15 = load ptr, ptr %6, align 8, !tbaa !11
  %16 = load i32, ptr %7, align 4, !tbaa !7
  %17 = call ptr %13(i64 noundef %14, ptr noundef %15, i32 noundef %16)
  store ptr %17, ptr %8, align 8, !tbaa !3
  %18 = load ptr, ptr %8, align 8, !tbaa !3
  %19 = icmp ne ptr %18, null
  br i1 %19, label %23, label %20

20:                                               ; preds = %12
  %21 = load i64, ptr %5, align 8, !tbaa !9
  %22 = icmp eq i64 %21, 0
  br i1 %22, label %23, label %25

23:                                               ; preds = %20, %12
  %24 = load ptr, ptr %8, align 8, !tbaa !3
  store ptr %24, ptr %4, align 8
  store i32 1, ptr %9, align 4
  br label %52

25:                                               ; preds = %20
  br label %42

26:                                               ; preds = %3
  %27 = load i64, ptr %5, align 8, !tbaa !9
  %28 = icmp eq i64 %27, 0
  br i1 %28, label %29, label %30

29:                                               ; preds = %26
  store ptr null, ptr %4, align 8
  store i32 1, ptr %9, align 4
  br label %52

30:                                               ; preds = %26
  %31 = load i32, ptr @allow_customize, align 4, !tbaa !7
  %32 = icmp ne i32 %31, 0
  br i1 %32, label %33, label %34

33:                                               ; preds = %30
  store i32 0, ptr @allow_customize, align 4, !tbaa !7
  br label %34

34:                                               ; preds = %33, %30
  %35 = load i64, ptr %5, align 8, !tbaa !9
  %36 = call noalias ptr @malloc(i64 noundef %35) #9
  store ptr %36, ptr %8, align 8, !tbaa !3
  %37 = load ptr, ptr %8, align 8, !tbaa !3
  %38 = icmp ne ptr %37, null
  br i1 %38, label %39, label %41

39:                                               ; preds = %34
  %40 = load ptr, ptr %8, align 8, !tbaa !3
  store ptr %40, ptr %4, align 8
  store i32 1, ptr %9, align 4
  br label %52

41:                                               ; preds = %34
  br label %42

42:                                               ; preds = %41, %25
  %43 = load ptr, ptr %6, align 8, !tbaa !11
  %44 = icmp ne ptr %43, null
  br i1 %44, label %48, label %45

45:                                               ; preds = %42
  %46 = load i32, ptr %7, align 4, !tbaa !7
  %47 = icmp ne i32 %46, 0
  br i1 %47, label %48, label %51

48:                                               ; preds = %45, %42
  call void @ERR_new()
  %49 = load ptr, ptr %6, align 8, !tbaa !11
  %50 = load i32, ptr %7, align 4, !tbaa !7
  call void @ERR_set_debug(ptr noundef %49, i32 noundef %50, ptr noundef null)
  call void (i32, i32, ptr, ...) @ERR_set_error(i32 noundef 15, i32 noundef 786688, ptr noundef null)
  br label %51

51:                                               ; preds = %48, %45
  store ptr null, ptr %4, align 8
  store i32 1, ptr %9, align 4
  br label %52

52:                                               ; preds = %51, %39, %29, %23
  call void @llvm.lifetime.end.p0(i64 8, ptr %8) #8
  %53 = load ptr, ptr %4, align 8
  ret ptr %53
}

; Function Attrs: nounwind uwtable
define ptr @CRYPTO_realloc(ptr noundef %0, i64 noundef %1, ptr noundef %2, i32 noundef %3) #0 {
  %5 = alloca ptr, align 8
  %6 = alloca ptr, align 8
  %7 = alloca i64, align 8
  %8 = alloca ptr, align 8
  %9 = alloca i32, align 4
  store ptr %0, ptr %6, align 8, !tbaa !3
  store i64 %1, ptr %7, align 8, !tbaa !9
  store ptr %2, ptr %8, align 8, !tbaa !11
  store i32 %3, ptr %9, align 4, !tbaa !7
  %10 = load ptr, ptr @realloc_impl, align 8, !tbaa !3
  %11 = icmp ne ptr %10, @CRYPTO_realloc
  br i1 %11, label %12, label %19

12:                                               ; preds = %4
  %13 = load ptr, ptr @realloc_impl, align 8, !tbaa !3
  %14 = load ptr, ptr %6, align 8, !tbaa !3
  %15 = load i64, ptr %7, align 8, !tbaa !9
  %16 = load ptr, ptr %8, align 8, !tbaa !11
  %17 = load i32, ptr %9, align 4, !tbaa !7
  %18 = call ptr %13(ptr noundef %14, i64 noundef %15, ptr noundef %16, i32 noundef %17)
  store ptr %18, ptr %5, align 8
  br label %38

19:                                               ; preds = %4
  %20 = load ptr, ptr %6, align 8, !tbaa !3
  %21 = icmp eq ptr %20, null
  br i1 %21, label %22, label %27

22:                                               ; preds = %19
  %23 = load i64, ptr %7, align 8, !tbaa !9
  %24 = load ptr, ptr %8, align 8, !tbaa !11
  %25 = load i32, ptr %9, align 4, !tbaa !7
  %26 = call noalias ptr @CRYPTO_malloc(i64 noundef %23, ptr noundef %24, i32 noundef %25)
  store ptr %26, ptr %5, align 8
  br label %38

27:                                               ; preds = %19
  %28 = load i64, ptr %7, align 8, !tbaa !9
  %29 = icmp eq i64 %28, 0
  br i1 %29, label %30, label %34

30:                                               ; preds = %27
  %31 = load ptr, ptr %6, align 8, !tbaa !3
  %32 = load ptr, ptr %8, align 8, !tbaa !11
  %33 = load i32, ptr %9, align 4, !tbaa !7
  call void @CRYPTO_free(ptr noundef %31, ptr noundef %32, i32 noundef %33)
  store ptr null, ptr %5, align 8
  br label %38

34:                                               ; preds = %27
  %35 = load ptr, ptr %6, align 8, !tbaa !3
  %36 = load i64, ptr %7, align 8, !tbaa !9
  %37 = call ptr @realloc(ptr noundef %35, i64 noundef %36) #10
  store ptr %37, ptr %5, align 8
  br label %38

38:                                               ; preds = %34, %30, %22, %12
  %39 = load ptr, ptr %5, align 8
  ret ptr %39
}