; Function Attrs: nounwind uwtable
define ptr @CRYPTO_realloc(ptr noundef %0, i64 noundef %1, ptr noundef %2, i32 noundef %3) #2 {
  %5 = load ptr, ptr @realloc_impl, align 8, !tbaa !3
  %.not = icmp eq ptr %5, @CRYPTO_realloc
  br i1 %.not, label %8, label %6

6:                                                ; preds = %4
  %7 = tail call ptr %5(ptr noundef %0, i64 noundef %1, ptr noundef %2, i32 noundef %3) #11
  br label %CRYPTO_malloc.exit

8:                                                ; preds = %4
  %9 = icmp eq ptr %0, null
  br i1 %9, label %10, label %26

10:                                               ; preds = %8
  %11 = load ptr, ptr @malloc_impl, align 8, !tbaa !3
  %.not.i = icmp eq ptr %11, @CRYPTO_malloc
  br i1 %.not.i, label %16, label %12

12:                                               ; preds = %10
  %13 = tail call ptr %11(i64 noundef %1, ptr noundef %2, i32 noundef %3) #11
  %14 = icmp ne ptr %13, null
  %15 = icmp eq i64 %1, 0
  %or.cond.i = or i1 %15, %14
  br i1 %or.cond.i, label %CRYPTO_malloc.exit, label %22

16:                                               ; preds = %10
  %17 = icmp eq i64 %1, 0
  br i1 %17, label %CRYPTO_malloc.exit, label %18

18:                                               ; preds = %16
  %.b.i = load i1, ptr @allow_customize, align 4
  br i1 %.b.i, label %20, label %19

19:                                               ; preds = %18
  store i1 true, ptr @allow_customize, align 4
  br label %20

20:                                               ; preds = %19, %18
  %21 = tail call noalias ptr @malloc(i64 noundef %1) #12
  %.not20.i = icmp eq ptr %21, null
  br i1 %.not20.i, label %22, label %CRYPTO_malloc.exit

22:                                               ; preds = %20, %12
  %23 = icmp ne ptr %2, null
  %24 = icmp ne i32 %3, 0
  %or.cond3.i = or i1 %23, %24
  br i1 %or.cond3.i, label %25, label %CRYPTO_malloc.exit

25:                                               ; preds = %22
  tail call void @ERR_new() #11
  tail call void @ERR_set_debug(ptr noundef %2, i32 noundef %3, ptr noundef null) #11
  tail call void (i32, i32, ptr, ...) @ERR_set_error(i32 noundef 15, i32 noundef 786688, ptr noundef null) #11
  br label %CRYPTO_malloc.exit

26:                                               ; preds = %8
  %27 = icmp eq i64 %1, 0
  br i1 %27, label %28, label %32

28:                                               ; preds = %26
  %29 = load ptr, ptr @free_impl, align 8, !tbaa !3
  %.not.i17 = icmp eq ptr %29, @CRYPTO_free
  br i1 %.not.i17, label %31, label %30

30:                                               ; preds = %28
  tail call void %29(ptr noundef nonnull %0, ptr noundef %2, i32 noundef %3) #11
  br label %CRYPTO_malloc.exit

31:                                               ; preds = %28
  tail call void @free(ptr noundef nonnull %0) #11
  br label %CRYPTO_malloc.exit

32:                                               ; preds = %26
  %33 = tail call ptr @realloc(ptr noundef nonnull %0, i64 noundef %1) #13
  br label %CRYPTO_malloc.exit

CRYPTO_malloc.exit:                               ; preds = %31, %30, %25, %22, %20, %16, %12, %32, %6
  %.0 = phi ptr [ %7, %6 ], [ %33, %32 ], [ %13, %12 ], [ null, %16 ], [ %21, %20 ], [ null, %22 ], [ null, %25 ], [ null, %30 ], [ null, %31 ]
  ret ptr %.0
}